target datalayout = "e-m:e-p270:32:32-p271:32:32-p272:64:64-i64:64-i128:128-f80:128-n8:16:32:64-S128"
target triple = "x86_64-pc-linux-gnu"

@hf_hdfsdata_startoffset = internal global i32 0, align 4
@hf_hdfsdata_seqnum = internal global i32 0, align 4
@hf_hdfsdata_last = internal global i32 0, align 4
@hf_hdfsdata_rest = internal global i32 0, align 4
@hf_hdfsdata_packetsize = internal global i32 0, align 4
@hf_hdfsdata_chunklength = internal global i32 0, align 4
@hf_hdfsdata_crc64 = internal global i32 0, align 4

; Function Attrs: null_pointer_is_valid sspstrong uwtable
define internal void @dissect_write_response(ptr noundef %0, ptr noundef %1, i32 noundef %2) #0 {
  %4 = alloca ptr, align 8
  %5 = alloca ptr, align 8
  %6 = alloca i32, align 4
  store ptr %0, ptr %4, align 8
  store ptr %1, ptr %5, align 8
  store i32 %2, ptr %6, align 4
  %7 = load ptr, ptr %5, align 8
  %8 = load i32, ptr @hf_hdfsdata_packetsize, align 4
  %9 = load ptr, ptr %4, align 8
  %10 = load i32, ptr %6, align 4
  %11 = call ptr @proto_tree_add_item(ptr noundef %7, i32 noundef %8, ptr noundef %9, i32 noundef %10, i32 noundef 4, i32 noundef 0)
  %12 = load i32, ptr %6, align 4
  %13 = add i32 %12, 4
  store i32 %13, ptr %6, align 4
  %14 = load ptr, ptr %5, align 8
  %15 = load i32, ptr @hf_hdfsdata_startoffset, align 4
  %16 = load ptr, ptr %4, align 8
  %17 = load i32, ptr %6, align 4
  %18 = call ptr @proto_tree_add_item(ptr noundef %14, i32 noundef %15, ptr noundef %16, i32 noundef %17, i32 noundef 8, i32 noundef 0)
  %19 = load i32, ptr %6, align 4
  %20 = add i32 %19, 8
  store i32 %20, ptr %6, align 4
  %21 = load ptr, ptr %5, align 8
  %22 = load i32, ptr @hf_hdfsdata_seqnum, align 4
  %23 = load ptr, ptr %4, align 8
  %24 = load i32, ptr %6, align 4
  %25 = call ptr @proto_tree_add_item(ptr noundef %21, i32 noundef %22, ptr noundef %23, i32 noundef %24, i32 noundef 8, i32 noundef 0)
  %26 = load i32, ptr %6, align 4
  %27 = add i32 %26, 8
  store i32 %27, ptr %6, align 4
  %28 = load ptr, ptr %5, align 8
  %29 = load i32, ptr @hf_hdfsdata_last, align 4
  %30 = load ptr, ptr %4, align 8
  %31 = load i32, ptr %6, align 4
  %32 = call ptr @proto_tree_add_item(ptr noundef %28, i32 noundef %29, ptr noundef %30, i32 noundef %31, i32 noundef 1, i32 noundef 0)
  %33 = load i32, ptr %6, align 4
  %34 = add i32 %33, 1
  store i32 %34, ptr %6, align 4
  %35 = load ptr, ptr %5, align 8
  %36 = load i32, ptr @hf_hdfsdata_chunklength, align 4
  %37 = load ptr, ptr %4, align 8
  %38 = load i32, ptr %6, align 4
  %39 = call ptr @proto_tree_add_item(ptr noundef %35, i32 noundef %36, ptr noundef %37, i32 noundef %38, i32 noundef 4, i32 noundef 0)
  %40 = load i32, ptr %6, align 4
  %41 = add i32 %40, 4
  store i32 %41, ptr %6, align 4
  %42 = load ptr, ptr %5, align 8
  %43 = load i32, ptr @hf_hdfsdata_crc64, align 4
  %44 = load ptr, ptr %4, align 8
  %45 = load i32, ptr %6, align 4
  %46 = call ptr @proto_tree_add_item(ptr noundef %42, i32 noundef %43, ptr noundef %44, i32 noundef %45, i32 noundef 8, i32 noundef 0)
  %47 = load i32, ptr %6, align 4
  %48 = add i32 %47, 8
  store i32 %48, ptr %6, align 4
  %49 = load ptr, ptr %5, align 8
  %50 = load i32, ptr @hf_hdfsdata_rest, align 4
  %51 = load ptr, ptr %4, align 8
  %52 = load i32, ptr %6, align 4
  %53 = load ptr, ptr %4, align 8
  %54 = call i32 @tvb_reported_length(ptr noundef %53)
  %55 = load i32, ptr %6, align 4
  %56 = sub i32 %54, %55
  %57 = call ptr @proto_tree_add_item(ptr noundef %49, i32 noundef %50, ptr noundef %51, i32 noundef %52, i32 noundef %56, i32 noundef 0)
  ret void
}