; Function Attrs: null_pointer_is_valid sspstrong uwtable
define internal fastcc void @dissect_write_response(ptr noundef %0, ptr noundef %1, i32 noundef %2) unnamed_addr #0 {
  %4 = load i32, ptr @hf_hdfsdata_packetsize, align 4
  %5 = tail call ptr @proto_tree_add_item(ptr noundef %1, i32 noundef %4, ptr noundef %0, i32 noundef %2, i32 noundef 4, i32 noundef 0)
  %6 = add i32 %2, 4
  %7 = load i32, ptr @hf_hdfsdata_startoffset, align 4
  %8 = tail call ptr @proto_tree_add_item(ptr noundef %1, i32 noundef %7, ptr noundef %0, i32 noundef %6, i32 noundef 8, i32 noundef 0)
  %9 = add i32 %2, 12
  %10 = load i32, ptr @hf_hdfsdata_seqnum, align 4
  %11 = tail call ptr @proto_tree_add_item(ptr noundef %1, i32 noundef %10, ptr noundef %0, i32 noundef %9, i32 noundef 8, i32 noundef 0)
  %12 = add i32 %2, 20
  %13 = load i32, ptr @hf_hdfsdata_last, align 4
  %14 = tail call ptr @proto_tree_add_item(ptr noundef %1, i32 noundef %13, ptr noundef %0, i32 noundef %12, i32 noundef 1, i32 noundef 0)
  %15 = add i32 %2, 21
  %16 = load i32, ptr @hf_hdfsdata_chunklength, align 4
  %17 = tail call ptr @proto_tree_add_item(ptr noundef %1, i32 noundef %16, ptr noundef %0, i32 noundef %15, i32 noundef 4, i32 noundef 0)
  %18 = add i32 %2, 25
  %19 = load i32, ptr @hf_hdfsdata_crc64, align 4
  %20 = tail call ptr @proto_tree_add_item(ptr noundef %1, i32 noundef %19, ptr noundef %0, i32 noundef %18, i32 noundef 8, i32 noundef 0)
  %21 = add i32 %2, 33
  %22 = load i32, ptr @hf_hdfsdata_rest, align 4
  %23 = tail call i32 @tvb_reported_length(ptr noundef %0)
  %24 = sub i32 %23, %21
  %25 = tail call ptr @proto_tree_add_item(ptr noundef %1, i32 noundef %22, ptr noundef %0, i32 noundef %21, i32 noundef %24, i32 noundef 0)
  ret void
}